target datalayout = "e-m:e-p270:32:32-p271:32:32-p272:64:64-i64:64-i128:128-f80:128-n8:16:32:64-S128"
target triple = "x86_64-pc-linux-gnu"

%struct.Bigint = type { ptr, i32, i32, i32, i32, [1 x i32] }

; Function Attrs: nounwind sspstrong uwtable
define internal i32 @cmp(ptr noundef %0, ptr noundef %1) #2 {
  %3 = alloca i32, align 4
  %4 = alloca ptr, align 8
  %5 = alloca ptr, align 8
  %6 = alloca ptr, align 8
  %7 = alloca ptr, align 8
  %8 = alloca ptr, align 8
  %9 = alloca ptr, align 8
  %10 = alloca i32, align 4
  %11 = alloca i32, align 4
  %12 = alloca i32, align 4
  store ptr %0, ptr %4, align 8, !tbaa !53
  store ptr %1, ptr %5, align 8, !tbaa !53
  call void @llvm.lifetime.start.p0(i64 8, ptr %6) #16
  call void @llvm.lifetime.start.p0(i64 8, ptr %7) #16
  call void @llvm.lifetime.start.p0(i64 8, ptr %8) #16
  call void @llvm.lifetime.start.p0(i64 8, ptr %9) #16
  call void @llvm.lifetime.start.p0(i64 4, ptr %10) #16
  call void @llvm.lifetime.start.p0(i64 4, ptr %11) #16
  %13 = load ptr, ptr %4, align 8, !tbaa !53
  %14 = getelementptr inbounds nuw %struct.Bigint, ptr %13, i32 0, i32 4
  %15 = load i32, ptr %14, align 4, !tbaa !59
  store i32 %15, ptr %10, align 4, !tbaa !20
  %16 = load ptr, ptr %5, align 8, !tbaa !53
  %17 = getelementptr inbounds nuw %struct.Bigint, ptr %16, i32 0, i32 4
  %18 = load i32, ptr %17, align 4, !tbaa !59
  store i32 %18, ptr %11, align 4, !tbaa !20
  %19 = load i32, ptr %11, align 4, !tbaa !20
  %20 = load i32, ptr %10, align 4, !tbaa !20
  %21 = sub i32 %20, %19
  store i32 %21, ptr %10, align 4, !tbaa !20
  %22 = icmp ne i32 %21, 0
  br i1 %22, label %23, label %25

23:                                               ; preds = %2
  %24 = load i32, ptr %10, align 4, !tbaa !20
  store i32 %24, ptr %3, align 4
  store i32 1, ptr %12, align 4
  br label %62

25:                                               ; preds = %2
  %26 = load ptr, ptr %4, align 8, !tbaa !53
  %27 = getelementptr inbounds nuw %struct.Bigint, ptr %26, i32 0, i32 5
  %28 = getelementptr inbounds [1 x i32], ptr %27, i64 0, i64 0
  store ptr %28, ptr %7, align 8, !tbaa !22
  %29 = load ptr, ptr %7, align 8, !tbaa !22
  %30 = load i32, ptr %11, align 4, !tbaa !20
  %31 = sext i32 %30 to i64
  %32 = getelementptr i32, ptr %29, i64 %31
  store ptr %32, ptr %6, align 8, !tbaa !22
  %33 = load ptr, ptr %5, align 8, !tbaa !53
  %34 = getelementptr inbounds nuw %struct.Bigint, ptr %33, i32 0, i32 5
  %35 = getelementptr inbounds [1 x i32], ptr %34, i64 0, i64 0
  store ptr %35, ptr %9, align 8, !tbaa !22
  %36 = load ptr, ptr %9, align 8, !tbaa !22
  %37 = load i32, ptr %11, align 4, !tbaa !20
  %38 = sext i32 %37 to i64
  %39 = getelementptr i32, ptr %36, i64 %38
  store ptr %39, ptr %8, align 8, !tbaa !22
  br label %40

40:                                               ; preds = %60, %25
  %41 = load ptr, ptr %6, align 8, !tbaa !22
  %42 = getelementptr i32, ptr %41, i32 -1
  store ptr %42, ptr %6, align 8, !tbaa !22
  %43 = load i32, ptr %42, align 4, !tbaa !20
  %44 = load ptr, ptr %8, align 8, !tbaa !22
  %45 = getelementptr i32, ptr %44, i32 -1
  store ptr %45, ptr %8, align 8, !tbaa !22
  %46 = load i32, ptr %45, align 4, !tbaa !20
  %47 = icmp ne i32 %43, %46
  br i1 %47, label %48, label %55

48:                                               ; preds = %40
  %49 = load ptr, ptr %6, align 8, !tbaa !22
  %50 = load i32, ptr %49, align 4, !tbaa !20
  %51 = load ptr, ptr %8, align 8, !tbaa !22
  %52 = load i32, ptr %51, align 4, !tbaa !20
  %53 = icmp ult i32 %50, %52
  %54 = select i1 %53, i32 -1, i32 1
  store i32 %54, ptr %3, align 4
  store i32 1, ptr %12, align 4
  br label %62

55:                                               ; preds = %40
  %56 = load ptr, ptr %6, align 8, !tbaa !22
  %57 = load ptr, ptr %7, align 8, !tbaa !22
  %58 = icmp ule ptr %56, %57
  br i1 %58, label %59, label %60

59:                                               ; preds = %55
  br label %61

60:                                               ; preds = %55
  br label %40

61:                                               ; preds = %59
  store i32 0, ptr %3, align 4
  store i32 1, ptr %12, align 4
  br label %62

62:                                               ; preds = %61, %48, %23
  call void @llvm.lifetime.end.p0(i64 4, ptr %11) #16
  call void @llvm.lifetime.end.p0(i64 4, ptr %10) #16
  call void @llvm.lifetime.end.p0(i64 8, ptr %9) #16
  call void @llvm.lifetime.end.p0(i64 8, ptr %8) #16
  call void @llvm.lifetime.end.p0(i64 8, ptr %7) #16
  call void @llvm.lifetime.end.p0(i64 8, ptr %6) #16
  %63 = load i32, ptr %3, align 4
  ret i32 %63
}

; Function Attrs: nounwind sspstrong uwtable
define internal i32 @quorem(ptr noundef %0, ptr noundef %1) #2 {
  %3 = alloca i32, align 4
  %4 = alloca ptr, align 8
  %5 = alloca ptr, align 8
  %6 = alloca i32, align 4
  %7 = alloca ptr, align 8
  %8 = alloca ptr, align 8
  %9 = alloca i32, align 4
  %10 = alloca ptr, align 8
  %11 = alloca ptr, align 8
  %12 = alloca i64, align 8
  %13 = alloca i64, align 8
  %14 = alloca i64, align 8
  %15 = alloca i64, align 8
  %16 = alloca i32, align 4
  store ptr %0, ptr %4, align 8, !tbaa !53
  store ptr %1, ptr %5, align 8, !tbaa !53
  call void @llvm.lifetime.start.p0(i64 4, ptr %6) #16
  call void @llvm.lifetime.start.p0(i64 8, ptr %7) #16
  call void @llvm.lifetime.start.p0(i64 8, ptr %8) #16
  call void @llvm.lifetime.start.p0(i64 4, ptr %9) #16
  call void @llvm.lifetime.start.p0(i64 8, ptr %10) #16
  call void @llvm.lifetime.start.p0(i64 8, ptr %11) #16
  call void @llvm.lifetime.start.p0(i64 8, ptr %12) #16
  call void @llvm.lifetime.start.p0(i64 8, ptr %13) #16
  call void @llvm.lifetime.start.p0(i64 8, ptr %14) #16
  call void @llvm.lifetime.start.p0(i64 8, ptr %15) #16
  %17 = load ptr, ptr %5, align 8, !tbaa !53
  %18 = getelementptr inbounds nuw %struct.Bigint, ptr %17, i32 0, i32 4
  %19 = load i32, ptr %18, align 4, !tbaa !59
  store i32 %19, ptr %6, align 4, !tbaa !20
  %20 = load ptr, ptr %4, align 8, !tbaa !53
  %21 = getelementptr inbounds nuw %struct.Bigint, ptr %20, i32 0, i32 4
  %22 = load i32, ptr %21, align 4, !tbaa !59
  %23 = load i32, ptr %6, align 4, !tbaa !20
  %24 = icmp slt i32 %22, %23
  br i1 %24, label %25, label %26

25:                                               ; preds = %2
  store i32 0, ptr %3, align 4
  store i32 1, ptr %16, align 4
  br label %188

26:                                               ; preds = %2
  %27 = load ptr, ptr %5, align 8, !tbaa !53
  %28 = getelementptr inbounds nuw %struct.Bigint, ptr %27, i32 0, i32 5
  %29 = getelementptr inbounds [1 x i32], ptr %28, i64 0, i64 0
  store ptr %29, ptr %10, align 8, !tbaa !22
  %30 = load ptr, ptr %10, align 8, !tbaa !22
  %31 = load i32, ptr %6, align 4, !tbaa !20
  %32 = add i32 %31, -1
  store i32 %32, ptr %6, align 4, !tbaa !20
  %33 = sext i32 %32 to i64
  %34 = getelementptr i32, ptr %30, i64 %33
  store ptr %34, ptr %11, align 8, !tbaa !22
  %35 = load ptr, ptr %4, align 8, !tbaa !53
  %36 = getelementptr inbounds nuw %struct.Bigint, ptr %35, i32 0, i32 5
  %37 = getelementptr inbounds [1 x i32], ptr %36, i64 0, i64 0
  store ptr %37, ptr %7, align 8, !tbaa !22
  %38 = load ptr, ptr %7, align 8, !tbaa !22
  %39 = load i32, ptr %6, align 4, !tbaa !20
  %40 = sext i32 %39 to i64
  %41 = getelementptr i32, ptr %38, i64 %40
  store ptr %41, ptr %8, align 8, !tbaa !22
  %42 = load ptr, ptr %8, align 8, !tbaa !22
  %43 = load i32, ptr %42, align 4, !tbaa !20
  %44 = load ptr, ptr %11, align 8, !tbaa !22
  %45 = load i32, ptr %44, align 4, !tbaa !20
  %46 = add i32 %45, 1
  %47 = udiv i32 %43, %46
  store i32 %47, ptr %9, align 4, !tbaa !20
  %48 = load i32, ptr %9, align 4, !tbaa !20
  %49 = icmp ne i32 %48, 0
  br i1 %49, label %50, label %111

50:                                               ; preds = %26
  store i64 0, ptr %12, align 8, !tbaa !71
  store i64 0, ptr %13, align 8, !tbaa !71
  br label %51

51:                                               ; preds = %79, %50
  %52 = load ptr, ptr %10, align 8, !tbaa !22
  %53 = getelementptr i32, ptr %52, i32 1
  store ptr %53, ptr %10, align 8, !tbaa !22
  %54 = load i32, ptr %52, align 4, !tbaa !20
  %55 = zext i32 %54 to i64
  %56 = load i32, ptr %9, align 4, !tbaa !20
  %57 = zext i32 %56 to i64
  %58 = mul i64 %55, %57
  %59 = load i64, ptr %13, align 8, !tbaa !71
  %60 = add i64 %58, %59
  store i64 %60, ptr %15, align 8, !tbaa !71
  %61 = load i64, ptr %15, align 8, !tbaa !71
  %62 = lshr i64 %61, 32
  store i64 %62, ptr %13, align 8, !tbaa !71
  %63 = load ptr, ptr %7, align 8, !tbaa !22
  %64 = load i32, ptr %63, align 4, !tbaa !20
  %65 = zext i32 %64 to i64
  %66 = load i64, ptr %15, align 8, !tbaa !71
  %67 = and i64 %66, 4294967295
  %68 = sub i64 %65, %67
  %69 = load i64, ptr %12, align 8, !tbaa !71
  %70 = sub i64 %68, %69
  store i64 %70, ptr %14, align 8, !tbaa !71
  %71 = load i64, ptr %14, align 8, !tbaa !71
  %72 = lshr i64 %71, 32
  %73 = and i64 %72, 1
  store i64 %73, ptr %12, align 8, !tbaa !71
  %74 = load i64, ptr %14, align 8, !tbaa !71
  %75 = and i64 %74, 4294967295
  %76 = trunc i64 %75 to i32
  %77 = load ptr, ptr %7, align 8, !tbaa !22
  %78 = getelementptr i32, ptr %77, i32 1
  store ptr %78, ptr %7, align 8, !tbaa !22
  store i32 %76, ptr %77, align 4, !tbaa !20
  br label %79

79:                                               ; preds = %51
  %80 = load ptr, ptr %10, align 8, !tbaa !22
  %81 = load ptr, ptr %11, align 8, !tbaa !22
  %82 = icmp ule ptr %80, %81
  br i1 %82, label %51, label %83, !llvm.loop !93

83:                                               ; preds = %79
  %84 = load ptr, ptr %8, align 8, !tbaa !22
  %85 = load i32, ptr %84, align 4, !tbaa !20
  %86 = icmp ne i32 %85, 0
  br i1 %86, label %110, label %87

87:                                               ; preds = %83
  %88 = load ptr, ptr %4, align 8, !tbaa !53
  %89 = getelementptr inbounds nuw %struct.Bigint, ptr %88, i32 0, i32 5
  %90 = getelementptr inbounds [1 x i32], ptr %89, i64 0, i64 0
  store ptr %90, ptr %7, align 8, !tbaa !22
  br label %91

91:                                               ; preds = %103, %87
  %92 = load ptr, ptr %8, align 8, !tbaa !22
  %93 = getelementptr i32, ptr %92, i32 -1
  store ptr %93, ptr %8, align 8, !tbaa !22
  %94 = load ptr, ptr %7, align 8, !tbaa !22
  %95 = icmp ugt ptr %93, %94
  br i1 %95, label %96, label %101

96:                                               ; preds = %91
  %97 = load ptr, ptr %8, align 8, !tbaa !22
  %98 = load i32, ptr %97, align 4, !tbaa !20
  %99 = icmp ne i32 %98, 0
  %100 = xor i1 %99, true
  br label %101

101:                                              ; preds = %96, %91
  %102 = phi i1 [ false, %91 ], [ %100, %96 ]
  br i1 %102, label %103, label %106

103:                                              ; preds = %101
  %104 = load i32, ptr %6, align 4, !tbaa !20
  %105 = add i32 %104, -1
  store i32 %105, ptr %6, align 4, !tbaa !20
  br label %91, !llvm.loop !94

106:                                              ; preds = %101
  %107 = load i32, ptr %6, align 4, !tbaa !20
  %108 = load ptr, ptr %4, align 8, !tbaa !53
  %109 = getelementptr inbounds nuw %struct.Bigint, ptr %108, i32 0, i32 4
  store i32 %107, ptr %109, align 4, !tbaa !59
  br label %110

110:                                              ; preds = %106, %83
  br label %111

111:                                              ; preds = %110, %26
  %112 = load ptr, ptr %4, align 8, !tbaa !53
  %113 = load ptr, ptr %5, align 8, !tbaa !53
  %114 = call i32 @cmp(ptr noundef %112, ptr noundef %113)
  %115 = icmp sge i32 %114, 0
  br i1 %115, label %116, label %186

116:                                              ; preds = %111
  %117 = load i32, ptr %9, align 4, !tbaa !20
  %118 = add i32 %117, 1
  store i32 %118, ptr %9, align 4, !tbaa !20
  store i64 0, ptr %12, align 8, !tbaa !71
  store i64 0, ptr %13, align 8, !tbaa !71
  %119 = load ptr, ptr %4, align 8, !tbaa !53
  %120 = getelementptr inbounds nuw %struct.Bigint, ptr %119, i32 0, i32 5
  %121 = getelementptr inbounds [1 x i32], ptr %120, i64 0, i64 0
  store ptr %121, ptr %7, align 8, !tbaa !22
  %122 = load ptr, ptr %5, align 8, !tbaa !53
  %123 = getelementptr inbounds nuw %struct.Bigint, ptr %122, i32 0, i32 5
  %124 = getelementptr inbounds [1 x i32], ptr %123, i64 0, i64 0
  store ptr %124, ptr %10, align 8, !tbaa !22
  br label %125

125:                                              ; preds = %150, %116
  %126 = load ptr, ptr %10, align 8, !tbaa !22
  %127 = getelementptr i32, ptr %126, i32 1
  store ptr %127, ptr %10, align 8, !tbaa !22
  %128 = load i32, ptr %126, align 4, !tbaa !20
  %129 = zext i32 %128 to i64
  %130 = load i64, ptr %13, align 8, !tbaa !71
  %131 = add i64 %129, %130
  store i64 %131, ptr %15, align 8, !tbaa !71
  %132 = load i64, ptr %15, align 8, !tbaa !71
  %133 = lshr i64 %132, 32
  store i64 %133, ptr %13, align 8, !tbaa !71
  %134 = load ptr, ptr %7, align 8, !tbaa !22
  %135 = load i32, ptr %134, align 4, !tbaa !20
  %136 = zext i32 %135 to i64
  %137 = load i64, ptr %15, align 8, !tbaa !71
  %138 = and i64 %137, 4294967295
  %139 = sub i64 %136, %138
  %140 = load i64, ptr %12, align 8, !tbaa !71
  %141 = sub i64 %139, %140
  store i64 %141, ptr %14, align 8, !tbaa !71
  %142 = load i64, ptr %14, align 8, !tbaa !71
  %143 = lshr i64 %142, 32
  %144 = and i64 %143, 1
  store i64 %144, ptr %12, align 8, !tbaa !71
  %145 = load i64, ptr %14, align 8, !tbaa !71
  %146 = and i64 %145, 4294967295
  %147 = trunc i64 %146 to i32
  %148 = load ptr, ptr %7, align 8, !tbaa !22
  %149 = getelementptr i32, ptr %148, i32 1
  store ptr %149, ptr %7, align 8, !tbaa !22
  store i32 %147, ptr %148, align 4, !tbaa !20
  br label %150

150:                                              ; preds = %125
  %151 = load ptr, ptr %10, align 8, !tbaa !22
  %152 = load ptr, ptr %11, align 8, !tbaa !22
  %153 = icmp ule ptr %151, %152
  br i1 %153, label %125, label %154, !llvm.loop !95

154:                                              ; preds = %150
  %155 = load ptr, ptr %4, align 8, !tbaa !53
  %156 = getelementptr inbounds nuw %struct.Bigint, ptr %155, i32 0, i32 5
  %157 = getelementptr inbounds [1 x i32], ptr %156, i64 0, i64 0
  store ptr %157, ptr %7, align 8, !tbaa !22
  %158 = load ptr, ptr %7, align 8, !tbaa !22
  %159 = load i32, ptr %6, align 4, !tbaa !20
  %160 = sext i32 %159 to i64
  %161 = getelementptr i32, ptr %158, i64 %160
  store ptr %161, ptr %8, align 8, !tbaa !22
  %162 = load ptr, ptr %8, align 8, !tbaa !22
  %163 = load i32, ptr %162, align 4, !tbaa !20
  %164 = icmp ne i32 %163, 0
  br i1 %164, label %185, label %165

165:                                              ; preds = %154
  br label %166

166:                                              ; preds = %178, %165
  %167 = load ptr, ptr %8, align 8, !tbaa !22
  %168 = getelementptr i32, ptr %167, i32 -1
  store ptr %168, ptr %8, align 8, !tbaa !22
  %169 = load ptr, ptr %7, align 8, !tbaa !22
  %170 = icmp ugt ptr %168, %169
  br i1 %170, label %171, label %176

171:                                              ; preds = %166
  %172 = load ptr, ptr %8, align 8, !tbaa !22
  %173 = load i32, ptr %172, align 4, !tbaa !20
  %174 = icmp ne i32 %173, 0
  %175 = xor i1 %174, true
  br label %176

176:                                              ; preds = %171, %166
  %177 = phi i1 [ false, %166 ], [ %175, %171 ]
  br i1 %177, label %178, label %181

178:                                              ; preds = %176
  %179 = load i32, ptr %6, align 4, !tbaa !20
  %180 = add i32 %179, -1
  store i32 %180, ptr %6, align 4, !tbaa !20
  br label %166, !llvm.loop !96

181:                                              ; preds = %176
  %182 = load i32, ptr %6, align 4, !tbaa !20
  %183 = load ptr, ptr %4, align 8, !tbaa !53
  %184 = getelementptr inbounds nuw %struct.Bigint, ptr %183, i32 0, i32 4
  store i32 %182, ptr %184, align 4, !tbaa !59
  br label %185

185:                                              ; preds = %181, %154
  br label %186

186:                                              ; preds = %185, %111
  %187 = load i32, ptr %9, align 4, !tbaa !20
  store i32 %187, ptr %3, align 4
  store i32 1, ptr %16, align 4
  br label %188

188:                                              ; preds = %186, %25
  call void @llvm.lifetime.end.p0(i64 8, ptr %15) #16
  call void @llvm.lifetime.end.p0(i64 8, ptr %14) #16
  call void @llvm.lifetime.end.p0(i64 8, ptr %13) #16
  call void @llvm.lifetime.end.p0(i64 8, ptr %12) #16
  call void @llvm.lifetime.end.p0(i64 8, ptr %11) #16
  call void @llvm.lifetime.end.p0(i64 8, ptr %10) #16
  call void @llvm.lifetime.end.p0(i64 4, ptr %9) #16
  call void @llvm.lifetime.end.p0(i64 8, ptr %8) #16
  call void @llvm.lifetime.end.p0(i64 8, ptr %7) #16
  call void @llvm.lifetime.end.p0(i64 4, ptr %6) #16
  %189 = load i32, ptr %3, align 4
  ret i32 %189
}