; Function Attrs: nofree norecurse nosync nounwind sspstrong memory(argmem: readwrite) uwtable
define internal fastcc i32 @quorem(ptr noundef captures(address) %0, ptr noundef readonly captures(address) %1) unnamed_addr #0 {
  %3 = getelementptr inbounds nuw i8, ptr %1, i64 20
  %4 = load i32, ptr %3, align 4, !tbaa !57
  %5 = getelementptr inbounds nuw i8, ptr %0, i64 20
  %6 = load i32, ptr %5, align 4, !tbaa !57
  %7 = icmp slt i32 %6, %4
  br i1 %7, label %cmp.exit.thread84, label %8

8:                                                ; preds = %2
  %9 = getelementptr inbounds nuw i8, ptr %1, i64 24
  %10 = add i32 %4, -1
  %11 = sext i32 %10 to i64
  %12 = getelementptr i32, ptr %9, i64 %11
  %13 = getelementptr inbounds nuw i8, ptr %0, i64 24
  %14 = getelementptr i32, ptr %13, i64 %11
  %15 = load i32, ptr %14, align 4, !tbaa !15
  %16 = load i32, ptr %12, align 4, !tbaa !15
  %17 = add i32 %16, 1
  %18 = udiv i32 %15, %17
  %.not = icmp ugt i32 %17, %15
  br i1 %.not, label %46, label %.preheader90

.preheader90:                                     ; preds = %8
  %19 = zext i32 %18 to i64
  br label %20

20:                                               ; preds = %.preheader90, %20
  %.069 = phi ptr [ %35, %20 ], [ %13, %.preheader90 ]
  %.064 = phi ptr [ %21, %20 ], [ %9, %.preheader90 ]
  %.061 = phi i64 [ %33, %20 ], [ 0, %.preheader90 ]
  %.0 = phi i64 [ %26, %20 ], [ 0, %.preheader90 ]
  %21 = getelementptr i8, ptr %.064, i64 4
  %22 = load i32, ptr %.064, align 4, !tbaa !15
  %23 = zext i32 %22 to i64
  %24 = mul nuw i64 %23, %19
  %25 = add nuw i64 %24, %.0
  %26 = lshr i64 %25, 32
  %27 = load i32, ptr %.069, align 4, !tbaa !15
  %28 = zext i32 %27 to i64
  %29 = and i64 %25, 4294967295
  %30 = add nuw nsw i64 %.061, %29
  %31 = sub nsw i64 %28, %30
  %32 = lshr i64 %31, 32
  %33 = and i64 %32, 1
  %34 = trunc i64 %31 to i32
  %35 = getelementptr i8, ptr %.069, i64 4
  store i32 %34, ptr %.069, align 4, !tbaa !15
  %.not77 = icmp ugt ptr %21, %12
  br i1 %.not77, label %36, label %20, !llvm.loop !79

36:                                               ; preds = %20
  %37 = load i32, ptr %14, align 4, !tbaa !15
  %.not78 = icmp eq i32 %37, 0
  br i1 %.not78, label %.preheader89, label %._crit_edge

._crit_edge:                                      ; preds = %36
  %.pre = load i32, ptr %5, align 4, !tbaa !57
  br label %46

.preheader89:                                     ; preds = %36
  %38 = getelementptr i8, ptr %14, i64 -4
  %39 = icmp ugt ptr %38, %13
  br i1 %39, label %.lr.ph, label %.critedge

.lr.ph:                                           ; preds = %.preheader89, %42
  %40 = phi ptr [ %44, %42 ], [ %38, %.preheader89 ]
  %.17294 = phi i32 [ %43, %42 ], [ %10, %.preheader89 ]
  %41 = load i32, ptr %40, align 4, !tbaa !15
  %.not79 = icmp eq i32 %41, 0
  br i1 %.not79, label %42, label %.critedge

42:                                               ; preds = %.lr.ph
  %43 = add i32 %.17294, -1
  %44 = getelementptr i8, ptr %40, i64 -4
  %45 = icmp ugt ptr %44, %13
  br i1 %45, label %.lr.ph, label %.critedge, !llvm.loop !80

.critedge:                                        ; preds = %.lr.ph, %42, %.preheader89
  %.172.lcssa = phi i32 [ %10, %.preheader89 ], [ %43, %42 ], [ %.17294, %.lr.ph ]
  store i32 %.172.lcssa, ptr %5, align 4, !tbaa !57
  br label %46

46:                                               ; preds = %._crit_edge, %.critedge, %8
  %47 = phi i32 [ %.pre, %._crit_edge ], [ %.172.lcssa, %.critedge ], [ %6, %8 ]
  %.071 = phi i32 [ %10, %._crit_edge ], [ %.172.lcssa, %.critedge ], [ %10, %8 ]
  %48 = load i32, ptr %3, align 4, !tbaa !57
  %.not.i = icmp eq i32 %47, %48
  br i1 %.not.i, label %49, label %cmp.exit

49:                                               ; preds = %46
  %50 = sext i32 %47 to i64
  %51 = getelementptr i32, ptr %13, i64 %50
  %52 = getelementptr i32, ptr %9, i64 %50
  br label %53

53:                                               ; preds = %60, %49
  %.018.i = phi ptr [ %52, %49 ], [ %56, %60 ]
  %.017.i = phi ptr [ %51, %49 ], [ %54, %60 ]
  %54 = getelementptr i8, ptr %.017.i, i64 -4
  %55 = load i32, ptr %54, align 4, !tbaa !15
  %56 = getelementptr i8, ptr %.018.i, i64 -4
  %57 = load i32, ptr %56, align 4, !tbaa !15
  %.not23.i = icmp eq i32 %55, %57
  br i1 %.not23.i, label %60, label %58

58:                                               ; preds = %53
  %59 = icmp ult i32 %55, %57
  br i1 %59, label %cmp.exit.thread84, label %cmp.exit.thread.preheader

60:                                               ; preds = %53
  %.not24.i = icmp ugt ptr %54, %13
  br i1 %.not24.i, label %53, label %cmp.exit.thread.preheader

cmp.exit:                                         ; preds = %46
  %61 = sub i32 %47, %48
  %62 = icmp sgt i32 %61, -1
  br i1 %62, label %cmp.exit.thread.preheader, label %cmp.exit.thread84

cmp.exit.thread.preheader:                        ; preds = %60, %58, %cmp.exit
  br label %cmp.exit.thread

cmp.exit.thread:                                  ; preds = %cmp.exit.thread.preheader, %cmp.exit.thread
  %.170 = phi ptr [ %73, %cmp.exit.thread ], [ %13, %cmp.exit.thread.preheader ]
  %.165 = phi ptr [ %63, %cmp.exit.thread ], [ %9, %cmp.exit.thread.preheader ]
  %.162 = phi i64 [ %71, %cmp.exit.thread ], [ 0, %cmp.exit.thread.preheader ]
  %63 = getelementptr i8, ptr %.165, i64 4
  %64 = load i32, ptr %.165, align 4, !tbaa !15
  %65 = zext i32 %64 to i64
  %66 = load i32, ptr %.170, align 4, !tbaa !15
  %67 = zext i32 %66 to i64
  %68 = add nuw nsw i64 %.162, %65
  %69 = sub nsw i64 %67, %68
  %70 = lshr i64 %69, 32
  %71 = and i64 %70, 1
  %72 = trunc i64 %69 to i32
  %73 = getelementptr i8, ptr %.170, i64 4
  store i32 %72, ptr %.170, align 4, !tbaa !15
  %.not80 = icmp ugt ptr %63, %12
  br i1 %.not80, label %74, label %cmp.exit.thread, !llvm.loop !81

74:                                               ; preds = %cmp.exit.thread
  %75 = add i32 %18, 1
  %76 = sext i32 %.071 to i64
  %77 = getelementptr i32, ptr %13, i64 %76
  %78 = load i32, ptr %77, align 4, !tbaa !15
  %.not81 = icmp eq i32 %78, 0
  br i1 %.not81, label %.preheader, label %cmp.exit.thread84

.preheader:                                       ; preds = %74
  %79 = getelementptr i8, ptr %77, i64 -4
  %80 = icmp ugt ptr %79, %13
  br i1 %80, label %.lr.ph98, label %.critedge2

.lr.ph98:                                         ; preds = %.preheader, %83
  %81 = phi ptr [ %85, %83 ], [ %79, %.preheader ]
  %.297 = phi i32 [ %84, %83 ], [ %.071, %.preheader ]
  %82 = load i32, ptr %81, align 4, !tbaa !15
  %.not82 = icmp eq i32 %82, 0
  br i1 %.not82, label %83, label %.critedge2

83:                                               ; preds = %.lr.ph98
  %84 = add i32 %.297, -1
  %85 = getelementptr i8, ptr %81, i64 -4
  %86 = icmp ugt ptr %85, %13
  br i1 %86, label %.lr.ph98, label %.critedge2, !llvm.loop !82

.critedge2:                                       ; preds = %.lr.ph98, %83, %.preheader
  %.2.lcssa = phi i32 [ %.071, %.preheader ], [ %84, %83 ], [ %.297, %.lr.ph98 ]
  store i32 %.2.lcssa, ptr %5, align 4, !tbaa !57
  br label %cmp.exit.thread84

cmp.exit.thread84:                                ; preds = %58, %cmp.exit, %.critedge2, %74, %2
  %.063 = phi i32 [ 0, %2 ], [ %75, %74 ], [ %75, %.critedge2 ], [ %18, %cmp.exit ], [ %18, %58 ]
  ret i32 %.063
}